;
; File generated by cc65 v 2.19 - Git 394d3b1
;
	.fopt		compiler,"cc65 v 2.19 - Git 394d3b1"
	.setcpu		"6502"
	.smart		on
	.autoimport	on
	.case		on
	.debuginfo	off
	.importzp	sp, sreg, regsave, regbank
	.importzp	tmp1, tmp2, tmp3, tmp4, ptr1, ptr2, ptr3, ptr4
	.macpack	longbranch
	.forceimport	__STARTUP__
	.import		_pal_bg
	.import		_pal_spr
	.import		_ppu_wait_nmi
	.import		_ppu_off
	.import		_ppu_on_all
	.import		_oam_clear
	.import		_oam_spr
	.import		_pad_poll
	.import		_bank_spr
	.import		_vram_adr
	.import		_vram_put
	.import		_set_vram_buffer
	.import		_one_vram_buffer
	.export		_temp0
	.export		_temp1
	.export		_temp2
	.export		_temp3
	.export		_temp4
	.export		_tempShort0
	.export		_global_i
	.export		_global_j
	.export		_frameCount
	.export		_frameCountOverflow
	.export		_rngState
	.export		_prevController
	.export		_controller
	.export		_gameMode
	.export		_cursorX
	.export		_cursorY
	.export		_numFlags
	.export		_numMinesSetInByte
	.export		_hardSelectionSprite
	.export		_boardIsMine
	.export		_boardIsActivated
	.export		_boardIsFlag
	.export		_bgPalette
	.export		_sprPalette
	.export		_updateRNGNoController
	.export		_getTileBaseHard
	.export		_setTileBaseHard
	.export		_getTileBaseEasy
	.export		_setTileBaseEasy
	.export		_printNumberDebug
	.export		_printNumber
	.export		_generateBoard
	.export		_hardUpdate
	.export		_update
	.export		_main

.segment	"DATA"

_numMinesSetInByte:
	.word	$0000

.segment	"RODATA"

_bgPalette:
	.byte	$09
	.byte	$1A
	.byte	$0F
	.byte	$30
	.byte	$00
	.byte	$00
	.byte	$00
	.byte	$00
	.byte	$00
	.byte	$00
	.byte	$00
	.byte	$00
	.byte	$00
	.byte	$00
	.byte	$00
	.byte	$00
_sprPalette:
	.byte	$09
	.byte	$30
	.byte	$52
	.byte	$30
	.byte	$00
	.byte	$00
	.byte	$00
	.byte	$00
	.byte	$00
	.byte	$00
	.byte	$00
	.byte	$00
	.byte	$00
	.byte	$00
	.byte	$00
	.byte	$00

.segment	"BSS"

.segment	"ZEROPAGE"
_temp0:
	.res	1,$00
_temp1:
	.res	1,$00
_temp2:
	.res	1,$00
_temp3:
	.res	1,$00
_temp4:
	.res	1,$00
_tempShort0:
	.res	2,$00
_global_i:
	.res	1,$00
_global_j:
	.res	1,$00
_frameCount:
	.res	1,$00
_frameCountOverflow:
	.res	1,$00
_rngState:
	.res	2,$00
_prevController:
	.res	1,$00
_controller:
	.res	1,$00
_gameMode:
	.res	1,$00
_cursorX:
	.res	1,$00
_cursorY:
	.res	1,$00
_numFlags:
	.res	1,$00
.segment	"BSS"
_hardSelectionSprite:
	.res	4,$00
_boardIsMine:
	.res	104,$00
_boardIsActivated:
	.res	104,$00
_boardIsFlag:
	.res	104,$00

; ---------------------------------------------------------------
; void __near__ updateController (void)
; ---------------------------------------------------------------

.segment	"CODE"

.proc	_updateController: near

.segment	"CODE"

;
; prevController = controller;
;
	lda     _controller
	sta     _prevController
;
; controller = pad_poll(0);
;
	lda     #$00
	jsr     _pad_poll
	sta     _controller
;
; if((controller & PAD_LEFT) && (controller & PAD_RIGHT)) controller &= ~(0b11u);
;
	and     #$02
	beq     L000D
	lda     _controller
	and     #$01
	beq     L000D
	lda     _controller
	and     #$FC
	sta     _controller
;
; if((controller & PAD_UP) && (controller & PAD_DOWN)) controller &= ~(0b1100u);
;
L000D:	lda     _controller
	and     #$08
	beq     L000F
	lda     _controller
	and     #$04
	bne     L0010
L000F:	rts
L0010:	lda     _controller
	and     #$F3
	sta     _controller
;
; }
;
	rts

.endproc

; ---------------------------------------------------------------
; void __near__ updateRNG (void)
; ---------------------------------------------------------------

.segment	"CODE"

.proc	_updateRNG: near

.segment	"CODE"

;
; __asm__("lda %v", rngState);
;
	lda     _rngState
;
; __asm__("clc");
;
	clc
;
; __asm__("adc %v", controller);
;
	adc     _controller
;
; __asm__("sta %v", rngState);
;
	sta     _rngState
;
; rngState.longState ^= rngState.longState << 7;
;
	ldx     _rngState+1
	jsr     shlax7
	eor     _rngState
	pha
	txa
	eor     _rngState+1
	tax
	pla
	sta     _rngState
	stx     _rngState+1
;
; rngState.longState ^= rngState.longState >> 9;
;
	sta     ptr1
	stx     ptr1+1
	lda     _rngState+1
	lsr     a
	eor     ptr1
	ldx     ptr1+1
	sta     _rngState
	stx     _rngState+1
;
; rngState.longState ^= rngState.longState << 8;
;
	sta     ptr1
	stx     ptr1+1
	ldx     _rngState
	lda     ptr1
	sta     _rngState
	txa
	eor     ptr1+1
	sta     _rngState+1
;
; }
;
	rts

.endproc

; ---------------------------------------------------------------
; void __near__ updateRNGNoController (void)
; ---------------------------------------------------------------

.segment	"CODE"

.proc	_updateRNGNoController: near

.segment	"CODE"

;
; rngState.longState ^= rngState.longState << 7;
;
	lda     _rngState
	ldx     _rngState+1
	jsr     shlax7
	eor     _rngState
	pha
	txa
	eor     _rngState+1
	tax
	pla
	sta     _rngState
	stx     _rngState+1
;
; rngState.longState ^= rngState.longState >> 9;
;
	sta     ptr1
	stx     ptr1+1
	lda     _rngState+1
	lsr     a
	eor     ptr1
	ldx     ptr1+1
	sta     _rngState
	stx     _rngState+1
;
; rngState.longState ^= rngState.longState << 8;
;
	sta     ptr1
	stx     ptr1+1
	ldx     _rngState
	lda     ptr1
	sta     _rngState
	txa
	eor     ptr1+1
	sta     _rngState+1
;
; }
;
	rts

.endproc

; ---------------------------------------------------------------
; unsigned char __near__ getTileBaseHard (unsigned char *boardType)
; ---------------------------------------------------------------

.segment	"CODE"

.proc	_getTileBaseHard: near

.segment	"CODE"

;
; uchar getTileBaseHard(uchar* boardType) {
;
	jsr     pushax
;
; tempShort0 = ((cursorY << 5) + cursorX); //bit offset
;
	ldx     #$00
	lda     _cursorY
	jsr     aslax4
	stx     tmp1
	asl     a
	rol     tmp1
	ldx     tmp1
	clc
	adc     _cursorX
	bcc     L0002
	inx
L0002:	sta     _tempShort0
	stx     _tempShort0+1
;
; return (boardType[tempShort0 >> 3] >> (tempShort0 & 0b111u)) & 0b1u;
;
	lda     _tempShort0
	ldx     _tempShort0+1
	jsr     shrax3
	clc
	ldy     #$00
	adc     (sp),y
	sta     ptr1
	txa
	iny
	adc     (sp),y
	sta     ptr1+1
	dey
	lda     (ptr1),y
	sta     ptr1
	lda     _tempShort0
	and     #$07
	tay
	lda     ptr1
L0003:	lsr     a
	dey
	bpl     L0003
	rol     a
	and     #$01
	ldx     #$00
;
; }
;
	jmp     incsp2

.endproc

; ---------------------------------------------------------------
; void __near__ setTileBaseHard (unsigned char *boardType, unsigned char value)
; ---------------------------------------------------------------

.segment	"CODE"

.proc	_setTileBaseHard: near

.segment	"CODE"

;
; void setTileBaseHard(uchar* boardType, uchar value) {
;
	jsr     pusha
;
; tempShort0 = ((cursorY << 5) + cursorX); //bit offset
;
	ldx     #$00
	lda     _cursorY
	jsr     aslax4
	stx     tmp1
	asl     a
	rol     tmp1
	ldx     tmp1
	clc
	adc     _cursorX
	bcc     L0002
	inx
L0002:	sta     _tempShort0
	stx     _tempShort0+1
;
; temp4 = tempShort0 >> 3;
;
	jsr     shrax3
	sta     _temp4
;
; temp3 = tempShort0 & 0b111;
;
	lda     _tempShort0
	and     #$07
	sta     _temp3
;
; boardType[temp4] = (boardType[temp4] & ~(0b1u << temp3)) | (value << temp3);
;
	ldy     #$02
	lda     (sp),y
	tax
	dey
	lda     (sp),y
	clc
	adc     _temp4
	bcc     L0003
	inx
L0003:	sta     ptr2
	stx     ptr2+1
	iny
	lda     (sp),y
	tax
	dey
	lda     (sp),y
	ldy     _temp4
	sta     ptr1
	stx     ptr1+1
	lda     (ptr1),y
	sta     ptr1
	ldy     _temp3
	lda     #$01
L0006:	asl     a
	dey
	bpl     L0006
	ror     a
	eor     #$FF
	and     ptr1
	sta     sreg
	ldy     #$00
	lda     (sp),y
	sta     ptr1
	ldy     _temp3
	lda     ptr1
L0005:	asl     a
	dey
	bpl     L0005
	ror     a
	ora     sreg
	ldy     #$00
	sta     (ptr2),y
;
; }
;
	jmp     incsp3

.endproc

; ---------------------------------------------------------------
; unsigned char __near__ getTileBaseEasy (unsigned char *boardType)
; ---------------------------------------------------------------

.segment	"CODE"

.proc	_getTileBaseEasy: near

.segment	"CODE"

;
; uchar getTileBaseEasy(uchar* boardType) {
;
	jsr     pushax
;
; tempShort0 = ((cursorY << 4) + cursorX); //bit offset
;
	ldx     #$00
	lda     _cursorY
	jsr     aslax4
	clc
	adc     _cursorX
	bcc     L0002
	inx
L0002:	sta     _tempShort0
	stx     _tempShort0+1
;
; return (boardType[tempShort0 >> 3] >> (tempShort0 & 0b111u)) & 0b1u;
;
	lda     _tempShort0
	ldx     _tempShort0+1
	jsr     shrax3
	clc
	ldy     #$00
	adc     (sp),y
	sta     ptr1
	txa
	iny
	adc     (sp),y
	sta     ptr1+1
	dey
	lda     (ptr1),y
	sta     ptr1
	lda     _tempShort0
	and     #$07
	tay
	lda     ptr1
L0003:	lsr     a
	dey
	bpl     L0003
	rol     a
	and     #$01
	ldx     #$00
;
; }
;
	jmp     incsp2

.endproc

; ---------------------------------------------------------------
; void __near__ setTileBaseEasy (unsigned char *boardType, unsigned char value)
; ---------------------------------------------------------------

.segment	"CODE"

.proc	_setTileBaseEasy: near

.segment	"CODE"

;
; void setTileBaseEasy(uchar* boardType, uchar value) {
;
	jsr     pusha
;
; tempShort0 = ((cursorY << 4) + cursorX); //bit offset
;
	ldx     #$00
	lda     _cursorY
	jsr     aslax4
	clc
	adc     _cursorX
	bcc     L0002
	inx
L0002:	sta     _tempShort0
	stx     _tempShort0+1
;
; temp4 = tempShort0 >> 3;
;
	jsr     shrax3
	sta     _temp4
;
; temp3 = tempShort0 & 0b111;
;
	lda     _tempShort0
	and     #$07
	sta     _temp3
;
; boardType[temp4] = (boardType[temp4] & ~(0b1u << temp3)) | (value << temp3);
;
	ldy     #$02
	lda     (sp),y
	tax
	dey
	lda     (sp),y
	clc
	adc     _temp4
	bcc     L0003
	inx
L0003:	sta     ptr2
	stx     ptr2+1
	iny
	lda     (sp),y
	tax
	dey
	lda     (sp),y
	ldy     _temp4
	sta     ptr1
	stx     ptr1+1
	lda     (ptr1),y
	sta     ptr1
	ldy     _temp3
	lda     #$01
L0006:	asl     a
	dey
	bpl     L0006
	ror     a
	eor     #$FF
	and     ptr1
	sta     sreg
	ldy     #$00
	lda     (sp),y
	sta     ptr1
	ldy     _temp3
	lda     ptr1
L0005:	asl     a
	dey
	bpl     L0005
	ror     a
	ora     sreg
	ldy     #$00
	sta     (ptr2),y
;
; }
;
	jmp     incsp3

.endproc

; ---------------------------------------------------------------
; unsigned char __near__ getTileIsMineHard (void)
; ---------------------------------------------------------------

.segment	"CODE"

.proc	_getTileIsMineHard: near

.segment	"CODE"

;
; return getTileBaseHard(boardIsMine);
;
	lda     #<(_boardIsMine)
	ldx     #>(_boardIsMine)
	jmp     _getTileBaseHard

.endproc

; ---------------------------------------------------------------
; unsigned char __near__ getTileIsMineEasy (void)
; ---------------------------------------------------------------

.segment	"CODE"

.proc	_getTileIsMineEasy: near

.segment	"CODE"

;
; return getTileBaseEasy(boardIsMine);
;
	lda     #<(_boardIsMine)
	ldx     #>(_boardIsMine)
	jmp     _getTileBaseEasy

.endproc

; ---------------------------------------------------------------
; unsigned char __near__ getTileIsActivatedHard (void)
; ---------------------------------------------------------------

.segment	"CODE"

.proc	_getTileIsActivatedHard: near

.segment	"CODE"

;
; return getTileBaseHard(boardIsActivated);
;
	lda     #<(_boardIsActivated)
	ldx     #>(_boardIsActivated)
	jmp     _getTileBaseHard

.endproc

; ---------------------------------------------------------------
; void __near__ setTileIsActivatedHard (unsigned char value)
; ---------------------------------------------------------------

.segment	"CODE"

.proc	_setTileIsActivatedHard: near

.segment	"CODE"

;
; inline void setTileIsActivatedHard(uchar value) {
;
	jsr     pusha
;
; setTileBaseHard(boardIsActivated, value);
;
	lda     #<(_boardIsActivated)
	ldx     #>(_boardIsActivated)
	jsr     pushax
	ldy     #$02
	lda     (sp),y
	jsr     _setTileBaseHard
;
; }
;
	jmp     incsp1

.endproc

; ---------------------------------------------------------------
; unsigned char __near__ getTileIsActivatedEasy (void)
; ---------------------------------------------------------------

.segment	"CODE"

.proc	_getTileIsActivatedEasy: near

.segment	"CODE"

;
; return getTileBaseEasy(boardIsActivated);
;
	lda     #<(_boardIsActivated)
	ldx     #>(_boardIsActivated)
	jmp     _getTileBaseEasy

.endproc

; ---------------------------------------------------------------
; void __near__ setTileIsActivatedEasy (unsigned char value)
; ---------------------------------------------------------------

.segment	"CODE"

.proc	_setTileIsActivatedEasy: near

.segment	"CODE"

;
; inline void setTileIsActivatedEasy(uchar value) {
;
	jsr     pusha
;
; setTileBaseEasy(boardIsActivated, value);
;
	lda     #<(_boardIsActivated)
	ldx     #>(_boardIsActivated)
	jsr     pushax
	ldy     #$02
	lda     (sp),y
	jsr     _setTileBaseEasy
;
; }
;
	jmp     incsp1

.endproc

; ---------------------------------------------------------------
; unsigned char __near__ getTileIsFlagHard (void)
; ---------------------------------------------------------------

.segment	"CODE"

.proc	_getTileIsFlagHard: near

.segment	"CODE"

;
; return getTileBaseHard(boardIsFlag);
;
	lda     #<(_boardIsFlag)
	ldx     #>(_boardIsFlag)
	jmp     _getTileBaseHard

.endproc

; ---------------------------------------------------------------
; void __near__ setTileIsFlagHard (unsigned char value)
; ---------------------------------------------------------------

.segment	"CODE"

.proc	_setTileIsFlagHard: near

.segment	"CODE"

;
; inline void setTileIsFlagHard(uchar value) {
;
	jsr     pusha
;
; setTileBaseHard(boardIsFlag, value);
;
	lda     #<(_boardIsFlag)
	ldx     #>(_boardIsFlag)
	jsr     pushax
	ldy     #$02
	lda     (sp),y
	jsr     _setTileBaseHard
;
; }
;
	jmp     incsp1

.endproc

; ---------------------------------------------------------------
; unsigned char __near__ getTileIsFlagEasy (void)
; ---------------------------------------------------------------

.segment	"CODE"

.proc	_getTileIsFlagEasy: near

.segment	"CODE"

;
; return getTileBaseEasy(boardIsFlag);
;
	lda     #<(_boardIsFlag)
	ldx     #>(_boardIsFlag)
	jmp     _getTileBaseEasy

.endproc

; ---------------------------------------------------------------
; void __near__ setTileIsFlagEasy (unsigned char value)
; ---------------------------------------------------------------

.segment	"CODE"

.proc	_setTileIsFlagEasy: near

.segment	"CODE"

;
; inline void setTileIsFlagEasy(uchar value) {
;
	jsr     pusha
;
; setTileBaseEasy(boardIsFlag, value);
;
	lda     #<(_boardIsFlag)
	ldx     #>(_boardIsFlag)
	jsr     pushax
	ldy     #$02
	lda     (sp),y
	jsr     _setTileBaseEasy
;
; }
;
	jmp     incsp1

.endproc

; ---------------------------------------------------------------
; void __near__ printNumberDebug (unsigned short number, unsigned char x, unsigned char y)
; ---------------------------------------------------------------

.segment	"CODE"

.proc	_printNumberDebug: near

.segment	"CODE"

;
; void printNumberDebug(unsigned short number, uchar x, uchar y) {
;
	jsr     pusha
;
; uchar output = 0;
;
	lda     #$00
	jsr     pusha
;
; uchar numberOffset = 0;
;
	jsr     pusha
;
; uchar firstNumber = FALSE;
;
	jsr     pusha
;
; while(number >= 10000) {
;
	jmp     L0004
;
; number -= 10000;
;
L0002:	ldx     #$27
	lda     #$10
	ldy     #$05
	jsr     subeqysp
;
; ++output;
;
	ldy     #$02
	clc
	lda     #$01
	adc     (sp),y
	sta     (sp),y
;
; while(number >= 10000) {
;
L0004:	ldy     #$06
	lda     (sp),y
	tax
	dey
	lda     (sp),y
	cmp     #$10
	txa
	sbc     #$27
	bcs     L0002
;
; one_vram_buffer(output + NUMBER_TO_TILE, NTADR_A(x, y));
;
	ldy     #$02
	lda     (sp),y
	clc
	adc     #$30
	jsr     pusha
	ldy     #$04
	ldx     #$00
	lda     (sp),y
	jsr     aslax4
	stx     tmp1
	asl     a
	rol     tmp1
	sta     ptr1
	iny
	lda     (sp),y
	ora     ptr1
	pha
	lda     tmp1
	ora     #$20
	tax
	pla
	jsr     _one_vram_buffer
;
; firstNumber = TRUE;
;
	lda     #$01
	ldy     #$00
	sta     (sp),y
;
; ++numberOffset;
;
	iny
	clc
	adc     (sp),y
	sta     (sp),y
;
; output = 0;
;
	lda     #$00
	iny
;
; while(number >= 1000) {
;
	jmp     L0017
;
; number -= 1000;
;
L0006:	ldx     #$03
	lda     #$E8
	ldy     #$05
	jsr     subeqysp
;
; ++output;
;
	ldy     #$02
	clc
	lda     #$01
	adc     (sp),y
L0017:	sta     (sp),y
;
; while(number >= 1000) {
;
	ldy     #$06
	lda     (sp),y
	tax
	dey
	lda     (sp),y
	cmp     #$E8
	txa
	sbc     #$03
	bcs     L0006
;
; one_vram_buffer(output + NUMBER_TO_TILE, NTADR_A(x + 1, y));
;
	ldy     #$02
	lda     (sp),y
	clc
	adc     #$30
	jsr     pusha
	ldy     #$04
	ldx     #$00
	lda     (sp),y
	jsr     aslax4
	stx     tmp1
	asl     a
	rol     tmp1
	sta     ptr1
	ldx     #$00
	iny
	lda     (sp),y
	clc
	adc     #$01
	bcc     L000A
	inx
L000A:	ora     ptr1
	pha
	txa
	ora     tmp1
	tax
	pla
	pha
	txa
	ora     #$20
	tax
	pla
	jsr     _one_vram_buffer
;
; firstNumber = TRUE;
;
	lda     #$01
	ldy     #$00
	sta     (sp),y
;
; ++numberOffset;
;
	iny
	clc
	adc     (sp),y
	sta     (sp),y
;
; output = 0;
;
	lda     #$00
	iny
;
; while(number >= 100) {
;
	jmp     L0018
;
; number -= 100;
;
L001A:	lda     #$64
	ldy     #$05
	jsr     subeqysp
;
; ++output;
;
	ldy     #$02
	clc
	lda     #$01
	adc     (sp),y
L0018:	sta     (sp),y
;
; while(number >= 100) {
;
	ldy     #$06
	lda     (sp),y
	tax
	dey
	lda     (sp),y
	cmp     #$64
	txa
	sbc     #$00
	ldx     #$00
	bcs     L001A
;
; one_vram_buffer(output + NUMBER_TO_TILE, NTADR_A(x + 2, y));
;
	ldy     #$02
	lda     (sp),y
	clc
	adc     #$30
	jsr     pusha
	ldy     #$04
	lda     (sp),y
	jsr     aslax4
	stx     tmp1
	asl     a
	rol     tmp1
	sta     ptr1
	ldx     #$00
	iny
	lda     (sp),y
	clc
	adc     #$02
	bcc     L000F
	inx
L000F:	ora     ptr1
	pha
	txa
	ora     tmp1
	tax
	pla
	pha
	txa
	ora     #$20
	tax
	pla
	jsr     _one_vram_buffer
;
; firstNumber = TRUE;
;
	lda     #$01
	ldy     #$00
	sta     (sp),y
;
; ++numberOffset;
;
	iny
	clc
	adc     (sp),y
	sta     (sp),y
;
; output = 0;
;
	lda     #$00
	iny
;
; while(number >= 10) {
;
	jmp     L0019
;
; number -= 10;
;
L001B:	lda     #$0A
	ldy     #$05
	jsr     subeqysp
;
; ++output;
;
	ldy     #$02
	clc
	lda     #$01
	adc     (sp),y
L0019:	sta     (sp),y
;
; while(number >= 10) {
;
	ldy     #$06
	lda     (sp),y
	tax
	dey
	lda     (sp),y
	cmp     #$0A
	txa
	sbc     #$00
	ldx     #$00
	bcs     L001B
;
; one_vram_buffer(output + NUMBER_TO_TILE, NTADR_A(x + 3, y));
;
	ldy     #$02
	lda     (sp),y
	clc
	adc     #$30
	jsr     pusha
	ldy     #$04
	lda     (sp),y
	jsr     aslax4
	stx     tmp1
	asl     a
	rol     tmp1
	sta     ptr1
	ldx     #$00
	iny
	lda     (sp),y
	clc
	adc     #$03
	bcc     L0014
	inx
L0014:	ora     ptr1
	pha
	txa
	ora     tmp1
	tax
	pla
	pha
	txa
	ora     #$20
	tax
	pla
	jsr     _one_vram_buffer
;
; firstNumber = TRUE;
;
	lda     #$01
	ldy     #$00
	sta     (sp),y
;
; ++numberOffset;
;
	iny
	clc
	adc     (sp),y
	sta     (sp),y
;
; output = 0;
;
	lda     #$00
	iny
	sta     (sp),y
;
; one_vram_buffer(number + NUMBER_TO_TILE, NTADR_A(x + 4, y));
;
	ldy     #$05
	lda     (sp),y
	clc
	adc     #$30
	jsr     pusha
	ldy     #$04
	ldx     #$00
	lda     (sp),y
	jsr     aslax4
	stx     tmp1
	asl     a
	rol     tmp1
	sta     ptr1
	ldx     #$00
	iny
	lda     (sp),y
	clc
	adc     #$04
	bcc     L0016
	inx
L0016:	ora     ptr1
	pha
	txa
	ora     tmp1
	tax
	pla
	pha
	txa
	ora     #$20
	tax
	pla
	jsr     _one_vram_buffer
;
; }
;
	jmp     incsp7

.endproc

; ---------------------------------------------------------------
; void __near__ printNumber (unsigned char number, unsigned char x, unsigned char y)
; ---------------------------------------------------------------

.segment	"CODE"

.proc	_printNumber: near

.segment	"CODE"

;
; void printNumber(uchar number, uchar x, uchar y) {
;
	jsr     pusha
;
; uchar offset = 0; //also for if the number's begun in bit 7
;
	lda     #$00
	jsr     pusha
;
; temp2 = 0;
;
	sta     _temp2
;
; if(number >= 100) {
;
	ldy     #$03
	lda     (sp),y
	cmp     #$64
	lda     #$00
	bcc     L001C
;
; while(number >= 100) {
;
	jmp     L001A
;
; number -= 100;
;
L0018:	lda     (sp),y
	sec
	sbc     #$64
	sta     (sp),y
;
; ++temp2;
;
	inc     _temp2
;
; while(number >= 100) {
;
L001A:	lda     (sp),y
	cmp     #$64
	bcs     L0018
;
; one_vram_buffer(temp2 + NUMBER_TO_TILE, NTADR_A(x, y));
;
	lda     _temp2
	clc
	adc     #$30
	jsr     pusha
	ldy     #$02
	ldx     #$00
	lda     (sp),y
	jsr     aslax4
	stx     tmp1
	asl     a
	rol     tmp1
	sta     ptr1
	iny
	lda     (sp),y
	ora     ptr1
	pha
	lda     tmp1
	ora     #$20
	tax
	pla
	jsr     _one_vram_buffer
;
; offset += 0b10000001;
;
	ldy     #$00
	clc
	lda     #$81
	adc     (sp),y
	sta     (sp),y
;
; temp2 = 0;
;
	tya
L001C:	sta     _temp2
;
; if(number >= 10) {
;
	ldy     #$03
	lda     (sp),y
	cmp     #$0A
	bcc     L0007
;
; while(number >= 10) {
;
	jmp     L0020
;
; number -= 10;
;
L001E:	lda     (sp),y
	sec
	sbc     #$0A
	sta     (sp),y
;
; ++temp2;
;
	inc     _temp2
;
; while(number >= 10) {
;
L0020:	lda     (sp),y
	cmp     #$0A
	bcs     L001E
;
; one_vram_buffer(temp2 + NUMBER_TO_TILE, NTADR_A(x + (offset & 0b11), y));
;
	lda     _temp2
	clc
	adc     #$30
	jsr     pusha
	ldy     #$02
	ldx     #$00
	lda     (sp),y
	jsr     aslax4
	stx     tmp1
	asl     a
	rol     tmp1
	sta     ptr1
	dey
	lda     (sp),y
	ldx     #$00
	and     #$03
	clc
	ldy     #$03
	adc     (sp),y
	bcc     L0012
	inx
L0012:	ora     ptr1
	pha
	txa
	ora     tmp1
	tax
	pla
	pha
	txa
	ora     #$20
	tax
	pla
	jsr     _one_vram_buffer
;
; offset++;
;
	ldy     #$00
;
; } else if(offset & 0b10000000) offset++;
;
	jmp     L0028
L0007:	ldy     #$00
	lda     (sp),y
	and     #$80
	beq     L0022
L0028:	clc
	lda     #$01
	adc     (sp),y
	sta     (sp),y
;
; offset &= ~(0b10000000); //clear the has number begun thingy
;
L0022:	lda     (sp),y
	and     #$7F
	sta     (sp),y
;
; one_vram_buffer(number + NUMBER_TO_TILE, NTADR_A(x + offset, y));
;
	ldy     #$03
	lda     (sp),y
	clc
	adc     #$30
;
; while(offset < 3) {
;
	jmp     L0046
;
; one_vram_buffer(0, NTADR_A(x + offset, y));
;
L0023:	lda     #$00
L0046:	jsr     pusha
	ldy     #$02
	ldx     #$00
	lda     (sp),y
	jsr     aslax4
	stx     tmp1
	asl     a
	rol     tmp1
	sta     ptr1
	ldx     #$00
	dey
	lda     (sp),y
	clc
	ldy     #$03
	adc     (sp),y
	bcc     L0014
	inx
L0014:	ora     ptr1
	pha
	txa
	ora     tmp1
	tax
	pla
	pha
	txa
	ora     #$20
	tax
	pla
	jsr     _one_vram_buffer
;
; ++offset;
;
	ldy     #$00
	clc
	lda     #$01
	adc     (sp),y
	sta     (sp),y
;
; while(offset < 3) {
;
	cmp     #$03
	bcc     L0023
;
; }
;
	jmp     incsp4

.endproc

; ---------------------------------------------------------------
; void __near__ generateBoard (void)
; ---------------------------------------------------------------

.segment	"CODE"

.proc	_generateBoard: near

.segment	"CODE"

;
; if((gameMode >> 3) & 0b1) { //is the game in hard mode?
;
	lda     _gameMode
	lsr     a
	lsr     a
	lsr     a
	and     #$01
	beq     L0013
;
; temp0 = HARD_NUM_MINES; //250 mines
;
	lda     #$FA
	sta     _temp0
;
; numFlags = HARD_NUM_MINES;
;
	sta     _numFlags
;
; temp1 = HARD_MAX_Y;
;
	lda     #$1A
	sta     _temp1
;
; temp2 = BOARD_MEM_SIZE;
;
	lda     #$68
	sta     _temp2
;
; tempShort0 = HARD_MAX_X * HARD_MAX_Y;
;
	ldx     #$03
	lda     #$40
;
; } else {
;
	jmp     L0016
;
; temp0 = EASY_NUM_MINES; //85 mines
;
L0013:	lda     #$46
	sta     _temp0
;
; numFlags = EASY_NUM_MINES;
;
	sta     _numFlags
;
; temp1 = EASY_MAX_Y;
;
	lda     #$0D
	sta     _temp1
;
; temp2 = EASY_BOARD_USED_MEM_SIZE;
;
	lda     #$1A
	sta     _temp2
;
; tempShort0 = EASY_MAX_X * EASY_MAX_Y;
;
	ldx     #$00
	lda     #$D0
L0016:	sta     _tempShort0
	stx     _tempShort0+1
;
; for(global_i = 0; global_i < temp2; global_i++) {
;
	lda     #$00
	sta     _global_i
L0014:	lda     _global_i
	cmp     _temp2
	bcs     L0005
;
; temp3 = 0; //clear the board
;
	lda     #$00
	sta     _temp3
;
; for(global_j = 0; global_j < 8; global_j++) { //8 bits per byte
;
	sta     _global_j
L0015:	lda     _global_j
	cmp     #$08
	bcs     L0009
;
; updateRNGNoController();
;
	jsr     _updateRNGNoController
;
; temp3 = temp3 << 1;
;
	lda     _temp3
	asl     a
	sta     _temp3
;
; if((rngState.longState % tempShort0) < temp0) { //if randomness says to, add a mine
;
	lda     _rngState
	ldx     _rngState+1
	jsr     pushax
	lda     _tempShort0
	ldx     _tempShort0+1
	jsr     tosumodax
	cmp     _temp0
	txa
	sbc     #$00
	bcs     L000C
;
; --temp0; //remove 1 flag from the flags counter
;
	dec     _temp0
;
; temp3 |= 0b1; //add a mine to the lsb of the byte
;
	lda     _temp3
	ora     #$01
	sta     _temp3
;
; ++numMinesSetInByte;
;
	inc     _numMinesSetInByte
	bne     L000C
	inc     _numMinesSetInByte+1
;
; --tempShort0;
;
L000C:	ldx     _tempShort0
	bne     L000E
	dec     _tempShort0+1
L000E:	dex
	stx     _tempShort0
;
; for(global_j = 0; global_j < 8; global_j++) { //8 bits per byte
;
	inc     _global_j
	jmp     L0015
;
; boardIsMine[global_i] = temp3;
;
L0009:	ldy     _global_i
	lda     _temp3
	sta     _boardIsMine,y
;
; boardIsActivated[global_i] = 0;
;
	ldy     _global_i
	lda     #$00
	sta     _boardIsActivated,y
;
; boardIsFlag[global_i] = 0;
;
	ldy     _global_i
	sta     _boardIsFlag,y
;
; for(global_i = 0; global_i < temp2; global_i++) {
;
	inc     _global_i
	jmp     L0014
;
; }
;
L0005:	rts

.endproc

; ---------------------------------------------------------------
; void __near__ hardUpdate (void)
; ---------------------------------------------------------------

.segment	"CODE"

.proc	_hardUpdate: near

.segment	"CODE"

;
; __asm__("lda #$00");
;
	lda     #$00
;
; __asm__("sta %v", temp1);
;
	sta     _temp1
;
; if(BUTTON_DOWN(PAD_RIGHT)) {
;
	lda     _controller
	and     #$01
	beq     L002D
	lda     _prevController
	and     #$01
	bne     L002D
;
; __asm__("ldx %v", cursorX);
;
	ldx     _cursorX
;
; __asm__("inx");
;
	inx
;
; __asm__("cpx #%b", HARD_MAX_X);
;
	cpx     #$20
;
; __asm__("bne @padRightSkip");
;
	bne     @padRightSkip
;
; __asm__("ldx #$00");
;
	tax
;
; __asm__("stx %v", cursorX);
;
@padRightSkip:
	stx     _cursorX
;
; __asm__("lda #%b", TRUE);
;
	lda     #$01
;
; __asm__("sta %v", temp1);
;
	sta     _temp1
;
; if(BUTTON_DOWN(PAD_LEFT)) {
;
L002D:	lda     _controller
	and     #$02
	beq     L0031
	lda     _prevController
	and     #$02
	bne     L0031
;
; __asm__("ldx %v", cursorX);
;
	ldx     _cursorX
;
; __asm__("dex");
;
	dex
;
; __asm__("bpl @padLeftSkip");
;
	bpl     @padLeftSkip
;
; __asm__("ldx #%b", HARD_MAX_X - 1);
;
	ldx     #$1F
;
; __asm__("stx %v", cursorX);
;
@padLeftSkip:
	stx     _cursorX
;
; __asm__("lda #%b", TRUE);
;
	lda     #$01
;
; __asm__("sta %v", temp1);
;
	sta     _temp1
;
; if(BUTTON_DOWN(PAD_DOWN)) {
;
L0031:	lda     _controller
	and     #$04
	beq     L0035
	lda     _prevController
	and     #$04
	bne     L0035
;
; __asm__("ldx %v", cursorY);
;
	ldx     _cursorY
;
; __asm__("inx");
;
	inx
;
; __asm__("cpx #%b", HARD_MAX_Y);
;
	cpx     #$1A
;
; __asm__("bne @padDownSkip");
;
	bne     @padDownSkip
;
; __asm__("ldx #00");
;
	tax
;
; __asm__("stx %v", cursorY);
;
@padDownSkip:
	stx     _cursorY
;
; __asm__("lda #%b", TRUE);
;
	lda     #$01
;
; __asm__("sta %v", temp1);
;
	sta     _temp1
;
; if(BUTTON_DOWN(PAD_UP)) {
;
L0035:	lda     _controller
	and     #$08
	beq     L000E
	lda     _prevController
	and     #$08
	bne     L000E
;
; __asm__("ldx %v", cursorY);
;
	ldx     _cursorY
;
; __asm__("dex");
;
	dex
;
; __asm__("bpl @padUpSkip");
;
	bpl     @padUpSkip
;
; __asm__("ldx #%b", HARD_MAX_Y - 1);
;
	ldx     #$19
;
; __asm__("stx %v", cursorY);
;
@padUpSkip:
	stx     _cursorY
;
; __asm__("lda #%b", TRUE);
;
	lda     #$01
;
; __asm__("sta %v", temp1);
;
	sta     _temp1
;
; if(temp1) {
;
L000E:	lda     _temp1
	beq     L0012
;
; printNumber(cursorX, 1, 1);
;
	jsr     decsp2
	lda     _cursorX
	ldy     #$01
	sta     (sp),y
	tya
	dey
	sta     (sp),y
	jsr     _printNumber
;
; printNumber(cursorY, 4, 1);
;
	jsr     decsp2
	lda     _cursorY
	ldy     #$01
	sta     (sp),y
	lda     #$04
	dey
	sta     (sp),y
	lda     #$01
	jsr     _printNumber
;
; hardSelectionSprite.xPos = cursorX << 3; //x8 to align w/ tiles
;
L0012:	lda     _cursorX
	asl     a
	asl     a
	asl     a
	sta     _hardSelectionSprite+3
;
; hardSelectionSprite.yPos = (cursorY << 3) + 23; //1 less to be 1 higher (properly aligned)
;
	lda     _cursorY
	asl     a
	asl     a
	asl     a
	clc
	adc     #$17
	sta     _hardSelectionSprite
;
; if((frameCount & 0b11111) == 0) {
;
	lda     _frameCount
	and     #$1F
	bne     L0018
;
; if((frameCount & 0b111111) == 0) one_vram_buffer(WHITE, PALETTE_MEMORY_BEGIN + 0x11);
;
	lda     _frameCount
	and     #$3F
	bne     L0039
	lda     #$30
;
; else one_vram_buffer(0x38, PALETTE_MEMORY_BEGIN + 0x11);
;
	jmp     L0046
L0039:	lda     #$38
L0046:	jsr     pusha
	ldx     #$3F
	lda     #$11
	jsr     _one_vram_buffer
;
; oam_clear();
;
L0018:	jsr     _oam_clear
;
; oam_spr(hardSelectionSprite.xPos, hardSelectionSprite.yPos, hardSelectionSprite.tile, hardSelectionSprite.attributes);
;
	jsr     decsp3
	lda     _hardSelectionSprite+3
	ldy     #$02
	sta     (sp),y
	lda     _hardSelectionSprite
	dey
	sta     (sp),y
	lda     _hardSelectionSprite+1
	dey
	sta     (sp),y
	lda     _hardSelectionSprite+2
	jsr     _oam_spr
;
; if(BUTTON_DOWN(PAD_B)) {
;
	lda     _controller
	and     #$40
	jeq     L003E
	lda     _prevController
	and     #$40
	jne     L003E
;
; if(getTileIsFlagHard()) {
;
	jsr     _getTileIsFlagHard
	tax
	beq     L003D
;
; ++numFlags;
;
	inc     _numFlags
;
; setTileIsFlagHard(FALSE);
;
	lda     #$00
	jsr     _setTileIsFlagHard
;
; one_vram_buffer(0x8 + (((cursorX & 0b1) ^ (cursorY & 0b1)) << 1), NTADR_A(cursorX, cursorY + 3));
;
	lda     _cursorX
	and     #$01
	jsr     pusha0
	lda     _cursorY
	and     #$01
	jsr     tosxora0
	asl     a
	clc
	adc     #$08
;
; } else if(numFlags > 0) {
;
	jmp     L0056
L003D:	lda     _numFlags
	beq     L0021
;
; --numFlags;
;
	dec     _numFlags
;
; setTileIsFlagHard(TRUE);
;
	lda     #$01
	jsr     _setTileIsFlagHard
;
; one_vram_buffer(0x9 + (((cursorX & 0b1) ^ (cursorY & 0b1)) << 1), NTADR_A(cursorX, cursorY + 3));
;
	lda     _cursorX
	and     #$01
	jsr     pusha0
	lda     _cursorY
	and     #$01
	jsr     tosxora0
	asl     a
	clc
	adc     #$09
L0056:	jsr     pusha
	ldx     #$00
	lda     _cursorY
	clc
	adc     #$03
	bcc     L0023
	inx
L0023:	jsr     aslax4
	stx     tmp1
	asl     a
	rol     tmp1
	sta     ptr1
	lda     _cursorX
	ora     ptr1
	pha
	lda     tmp1
	ora     #$20
	tax
	pla
	jsr     _one_vram_buffer
;
; printNumber(numFlags, 7, 1);
;
L0021:	jsr     decsp2
	lda     _numFlags
	ldy     #$01
	sta     (sp),y
	lda     #$07
	dey
	sta     (sp),y
	lda     #$01
	jsr     _printNumber
;
; if(BUTTON_DOWN(PAD_A) && !getTileIsFlagHard()) {
;
L003E:	lda     _controller
	and     #$80
	beq     L0040
	lda     _prevController
	and     #$80
	bne     L0040
	jsr     _getTileIsFlagHard
	tax
	beq     L0041
L0040:	rts
;
; }
;
L0041:	rts

.endproc

; ---------------------------------------------------------------
; void __near__ initState (void)
; ---------------------------------------------------------------

.segment	"CODE"

.proc	_initState: near

.segment	"CODE"

;
; prevController = 0;
;
	lda     #$00
	sta     _prevController
;
; controller = 0;
;
	sta     _controller
;
; rngState.byte1 = 0xC2;
;
	lda     #$C2
	sta     _rngState
;
; rngState.byte2 = 0xE3;
;
	lda     #$E3
	sta     _rngState+1
;
; frameCount = 0;
;
	lda     #$00
	sta     _frameCount
;
; hardSelectionSprite.tile = 0x00;
;
	sta     _hardSelectionSprite+1
;
; hardSelectionSprite.attributes = 0b00000000;
;
	sta     _hardSelectionSprite+2
;
; }
;
	rts

.endproc

; ---------------------------------------------------------------
; void __near__ update (void)
; ---------------------------------------------------------------

.segment	"CODE"

.proc	_update: near

.segment	"CODE"

;
; updateController();
;
	jsr     _updateController
;
; updateRNG();
;
	jsr     _updateRNG
;
; hardUpdate();
;
	jsr     _hardUpdate
;
; __asm__("inc %v", frameCount);
;
	inc     _frameCount
;
; __asm__("bne @frameCountNoOverflow");
;
	bne     @frameCountNoOverflow
;
; frameCountOverflow = TRUE;
;
	lda     #$01
;
; return;
;
	jmp     L0002
;
; frameCountOverflow = FALSE;
;
@frameCountNoOverflow:
	lda     #$00
L0002:	sta     _frameCountOverflow
;
; }
;
	rts

.endproc

; ---------------------------------------------------------------
; void __near__ main (void)
; ---------------------------------------------------------------

.segment	"CODE"

.proc	_main: near

.segment	"CODE"

;
; initState();
;
	jsr     _initState
;
; gameMode |= (0b1 << 3);
;
	lda     _gameMode
	ora     #$08
	sta     _gameMode
;
; ppu_off(); //screen off
;
	jsr     _ppu_off
;
; generateBoard();
;
	jsr     _generateBoard
;
; pal_bg(bgPalette);
;
	lda     #<(_bgPalette)
	ldx     #>(_bgPalette)
	jsr     _pal_bg
;
; pal_spr(sprPalette);
;
	lda     #<(_sprPalette)
	ldx     #>(_sprPalette)
	jsr     _pal_spr
;
; bank_spr(1);
;
	lda     #$01
	jsr     _bank_spr
;
; for(global_i = 0; global_i < HARD_MAX_X; ++global_i) {
;
	lda     #$00
	sta     _global_i
L000F:	lda     _global_i
	cmp     #$20
	bcs     L0003
;
; for(global_j = 0; global_j < HARD_MAX_Y; ++global_j) {
;
	lda     #$00
	sta     _global_j
L0010:	lda     _global_j
	cmp     #$1A
	bcs     L0011
;
; temp2 = 0x8 + (((global_i & 0b1) ^ (global_j & 0b1)) << 1); //tile num, alternates as a checkerboard
;
	lda     _global_i
	and     #$01
	jsr     pusha0
	lda     _global_j
	and     #$01
	jsr     tosxora0
	asl     a
	clc
	adc     #$08
	sta     _temp2
;
; vram_adr(NTADR_A(global_i, global_j + 3));
;
	ldx     #$00
	lda     _global_j
	clc
	adc     #$03
	bcc     L000B
	inx
L000B:	jsr     aslax4
	stx     tmp1
	asl     a
	rol     tmp1
	sta     ptr1
	lda     _global_i
	ora     ptr1
	pha
	lda     tmp1
	ora     #$20
	tax
	pla
	jsr     _vram_adr
;
; vram_put(temp2);
;
	lda     _temp2
	jsr     _vram_put
;
; for(global_j = 0; global_j < HARD_MAX_Y; ++global_j) {
;
	inc     _global_j
	jmp     L0010
;
; for(global_i = 0; global_i < HARD_MAX_X; ++global_i) {
;
L0011:	inc     _global_i
	jmp     L000F
;
; ppu_on_all();
;
L0003:	jsr     _ppu_on_all
;
; set_vram_buffer();
;
	jsr     _set_vram_buffer
;
; printNumber(cursorX, 1, 1);
;
	jsr     decsp2
	lda     _cursorX
	ldy     #$01
	sta     (sp),y
	tya
	dey
	sta     (sp),y
	jsr     _printNumber
;
; printNumber(cursorY, 4, 1);
;
	jsr     decsp2
	lda     _cursorY
	ldy     #$01
	sta     (sp),y
	lda     #$04
	dey
	sta     (sp),y
	lda     #$01
	jsr     _printNumber
;
; printNumber(numFlags, 7, 1);
;
	jsr     decsp2
	lda     _numFlags
	ldy     #$01
	sta     (sp),y
	lda     #$07
	dey
	sta     (sp),y
	lda     #$01
	jsr     _printNumber
;
; ppu_wait_nmi();
;
L000C:	jsr     _ppu_wait_nmi
;
; update();
;
	jsr     _update
;
; while(TRUE) {
;
	jmp     L000C

.endproc

